target datalayout = "e-m:e-p270:32:32-p271:32:32-p272:64:64-i64:64-i128:128-f80:128-n8:16:32:64-S128"
target triple = "x86_64-pc-linux-gnu"

%struct.LogicalRepWorker = type { i32, i64, i8, i16, ptr, i32, i32, i32, i32, i8, i64, i8, ptr, i32, i8, i64, i64, i64, i64, i64 }
%struct.Subscription = type { i32, i32, i64, ptr, i32, i8, i8, i8, i8, i8, i8, i8, i8, i8, ptr, ptr, ptr, ptr, ptr }
%struct.RelationData = type { %struct.RelFileLocator, ptr, i32, i32, i8, i8, i8, i8, i8, i32, i32, i32, i32, ptr, ptr, i32, %struct.LockInfoData, ptr, ptr, ptr, ptr, ptr, i8, ptr, ptr, ptr, ptr, ptr, ptr, i32, ptr, i8, ptr, ptr, i32, i8, i32, ptr, i8, ptr, ptr, ptr, ptr, ptr, ptr, ptr, i32, ptr, ptr, ptr, ptr, ptr, ptr, ptr, ptr, ptr, ptr, ptr, ptr, ptr, ptr, ptr, ptr, ptr, ptr, ptr, i32, i8, ptr }
%struct.RelFileLocator = type { i32, i32, i32 }
%struct.LockInfoData = type { %struct.LockRelId }
%struct.LockRelId = type { i32, i32 }
%struct.nameData = type { [64 x i8] }
%struct.ItemPointerData = type { %struct.BlockIdData, i16 }
%struct.BlockIdData = type { i16, i16 }
%struct.FormData_pg_subscription = type { i32, i32, i64, %struct.nameData, i32, i8, i8, i8, i8, i8, i8, i8, i8 }
%struct.HeapTupleData = type { i32, %struct.ItemPointerData, i32, ptr }
%struct.HeapTupleHeaderData = type { %union.anon.1, %struct.ItemPointerData, i16, i16, i8, [0 x i8] }
%union.anon.1 = type { %struct.HeapTupleFields }
%struct.HeapTupleFields = type { i32, i32, %union.anon.2 }
%union.anon.2 = type { i32 }

@MySubscription = dso_local global ptr null, align 8
@MyLogicalRepWorker = external global ptr, align 8
@.str.3 = private unnamed_addr constant [9 x i8] c"worker.c\00", align 1
@.str.41 = private unnamed_addr constant [33 x i8] c"subscription \22%s\22 does not exist\00", align 1
@__func__.clear_subscription_skip_lsn = private unnamed_addr constant [28 x i8] c"clear_subscription_skip_lsn\00", align 1
@.str.42 = private unnamed_addr constant [38 x i8] c"skip-LSN of subscription \22%s\22 cleared\00", align 1
@.str.43 = private unnamed_addr constant [83 x i8] c"Remote transaction's finish WAL location (LSN) %X/%X did not match skip-LSN %X/%X.\00", align 1

; Function Attrs: inlinehint nounwind uwtable
define internal i64 @Int64GetDatum(i64 noundef %0) #3 {
  %2 = alloca i64, align 8
  store i64 %0, ptr %2, align 8
  %3 = load i64, ptr %2, align 8
  ret i64 %3
}

; Function Attrs: inlinehint nounwind uwtable
define internal i64 @LSNGetDatum(i64 noundef %0) #3 {
  %2 = alloca i64, align 8
  store i64 %0, ptr %2, align 8
  %3 = load i64, ptr %2, align 8
  %4 = call i64 @Int64GetDatum(i64 noundef %3)
  ret i64 %4
}

; Function Attrs: inlinehint nounwind uwtable
define internal ptr @GETSTRUCT(ptr noundef %0) #3 {
  %2 = alloca ptr, align 8
  store ptr %0, ptr %2, align 8
  %3 = load ptr, ptr %2, align 8
  %4 = getelementptr inbounds nuw %struct.HeapTupleData, ptr %3, i32 0, i32 3
  %5 = load ptr, ptr %4, align 8
  %6 = load ptr, ptr %2, align 8
  %7 = getelementptr inbounds nuw %struct.HeapTupleData, ptr %6, i32 0, i32 3
  %8 = load ptr, ptr %7, align 8
  %9 = getelementptr inbounds nuw %struct.HeapTupleHeaderData, ptr %8, i32 0, i32 4
  %10 = load i8, ptr %9, align 2
  %11 = zext i8 %10 to i32
  %12 = sext i32 %11 to i64
  %13 = getelementptr inbounds i8, ptr %5, i64 %12
  ret ptr %13
}

; Function Attrs: inlinehint nounwind uwtable
define internal i64 @ObjectIdGetDatum(i32 noundef %0) #3 {
  %2 = alloca i32, align 4
  store i32 %0, ptr %2, align 4
  %3 = load i32, ptr %2, align 4
  %4 = zext i32 %3 to i64
  ret i64 %4
}

; Function Attrs: inlinehint nounwind uwtable
define internal zeroext i1 @am_parallel_apply_worker() #3 {
  %1 = load ptr, ptr @MyLogicalRepWorker, align 8
  %2 = getelementptr inbounds nuw %struct.LogicalRepWorker, ptr %1, i32 0, i32 2
  %3 = load i8, ptr %2, align 8, !range !4, !noundef !5
  %4 = trunc i8 %3 to i1
  br i1 %4, label %5, label %10

5:                                                ; preds = %0
  %6 = load ptr, ptr @MyLogicalRepWorker, align 8
  %7 = getelementptr inbounds nuw %struct.LogicalRepWorker, ptr %6, i32 0, i32 0
  %8 = load i32, ptr %7, align 8
  %9 = icmp eq i32 %8, 3
  br label %10

10:                                               ; preds = %5, %0
  %11 = phi i1 [ false, %0 ], [ %9, %5 ]
  ret i1 %11
}

; Function Attrs: nounwind uwtable
define internal void @clear_subscription_skip_lsn(i64 noundef %0) #0 {
  %2 = alloca i64, align 8
  %3 = alloca ptr, align 8
  %4 = alloca ptr, align 8
  %5 = alloca ptr, align 8
  %6 = alloca i64, align 8
  %7 = alloca i8, align 1
  %8 = alloca i32, align 4
  %9 = alloca [18 x i8], align 16
  %10 = alloca [18 x i8], align 16
  %11 = alloca [18 x i64], align 16
  %12 = alloca i32, align 4
  %13 = alloca i32, align 4
  store i64 %0, ptr %2, align 8
  call void @llvm.lifetime.start.p0(i64 8, ptr %3) #12
  call void @llvm.lifetime.start.p0(i64 8, ptr %4) #12
  call void @llvm.lifetime.start.p0(i64 8, ptr %5) #12
  call void @llvm.lifetime.start.p0(i64 8, ptr %6) #12
  %14 = load ptr, ptr @MySubscription, align 8
  %15 = getelementptr inbounds nuw %struct.Subscription, ptr %14, i32 0, i32 2
  %16 = load i64, ptr %15, align 8
  store i64 %16, ptr %6, align 8
  call void @llvm.lifetime.start.p0(i64 1, ptr %7) #12
  store i8 0, ptr %7, align 1
  %17 = load i64, ptr %6, align 8
  %18 = icmp eq i64 %17, 0
  %19 = zext i1 %18 to i32
  %20 = icmp ne i32 %19, 0
  %21 = zext i1 %20 to i32
  %22 = sext i32 %21 to i64
  %23 = call i64 @llvm.expect.i64(i64 %22, i64 1)
  %24 = icmp ne i64 %23, 0
  br i1 %24, label %27, label %25

25:                                               ; preds = %1
  %26 = call zeroext i1 @am_parallel_apply_worker()
  br i1 %26, label %27, label %28

27:                                               ; preds = %25, %1
  store i32 1, ptr %8, align 4
  br label %126

28:                                               ; preds = %25
  %29 = call zeroext i1 @IsTransactionState()
  br i1 %29, label %31, label %30

30:                                               ; preds = %28
  call void @StartTransactionCommand()
  store i8 1, ptr %7, align 1
  br label %31

31:                                               ; preds = %30, %28
  %32 = load ptr, ptr @MySubscription, align 8
  %33 = getelementptr inbounds nuw %struct.Subscription, ptr %32, i32 0, i32 0
  %34 = load i32, ptr %33, align 8
  call void @LockSharedObject(i32 noundef 6100, i32 noundef %34, i16 noundef zeroext 0, i32 noundef 1)
  %35 = call ptr @table_open(i32 noundef 6100, i32 noundef 3)
  store ptr %35, ptr %3, align 8
  %36 = load ptr, ptr @MySubscription, align 8
  %37 = getelementptr inbounds nuw %struct.Subscription, ptr %36, i32 0, i32 0
  %38 = load i32, ptr %37, align 8
  %39 = call i64 @ObjectIdGetDatum(i32 noundef %38)
  %40 = call ptr @SearchSysCacheCopy(i32 noundef 67, i64 noundef %39, i64 noundef 0, i64 noundef 0, i64 noundef 0)
  store ptr %40, ptr %5, align 8
  %41 = load ptr, ptr %5, align 8
  %42 = icmp ne ptr %41, null
  br i1 %42, label %57, label %43

43:                                               ; preds = %31
  br label %44

44:                                               ; preds = %43
  br i1 true, label %45, label %47

45:                                               ; preds = %44
  %46 = call zeroext i1 @errstart_cold(i32 noundef 21, ptr noundef null) #13
  br i1 %46, label %49, label %54

47:                                               ; preds = %44
  %48 = call zeroext i1 @errstart(i32 noundef 21, ptr noundef null)
  br i1 %48, label %49, label %54

49:                                               ; preds = %47, %45
  %50 = load ptr, ptr @MySubscription, align 8
  %51 = getelementptr inbounds nuw %struct.Subscription, ptr %50, i32 0, i32 3
  %52 = load ptr, ptr %51, align 8
  %53 = call i32 (ptr, ...) @errmsg_internal(ptr noundef @.str.41, ptr noundef %52)
  call void @errfinish(ptr noundef @.str.3, i32 noundef 4946, ptr noundef @__func__.clear_subscription_skip_lsn)
  br label %54

54:                                               ; preds = %49, %47, %45
  unreachable

55:                                               ; No predecessors!
  br label %56

56:                                               ; preds = %55
  br label %57

57:                                               ; preds = %56, %31
  %58 = load ptr, ptr %5, align 8
  %59 = call ptr @GETSTRUCT(ptr noundef %58)
  store ptr %59, ptr %4, align 8
  %60 = load ptr, ptr %4, align 8
  %61 = getelementptr inbounds nuw %struct.FormData_pg_subscription, ptr %60, i32 0, i32 2
  %62 = load i64, ptr %61, align 8
  %63 = load i64, ptr %6, align 8
  %64 = icmp eq i64 %62, %63
  br i1 %64, label %65, label %119

65:                                               ; preds = %57
  call void @llvm.lifetime.start.p0(i64 18, ptr %9) #12
  call void @llvm.lifetime.start.p0(i64 18, ptr %10) #12
  call void @llvm.lifetime.start.p0(i64 144, ptr %11) #12
  %66 = getelementptr inbounds [18 x i64], ptr %11, i64 0, i64 0
  call void @llvm.memset.p0.i64(ptr align 16 %66, i8 0, i64 144, i1 false)
  %67 = getelementptr inbounds [18 x i8], ptr %9, i64 0, i64 0
  call void @llvm.memset.p0.i64(ptr align 16 %67, i8 0, i64 18, i1 false)
  %68 = getelementptr inbounds [18 x i8], ptr %10, i64 0, i64 0
  call void @llvm.memset.p0.i64(ptr align 16 %68, i8 0, i64 18, i1 false)
  %69 = call i64 @LSNGetDatum(i64 noundef 0)
  %70 = getelementptr inbounds [18 x i64], ptr %11, i64 0, i64 2
  store i64 %69, ptr %70, align 16
  %71 = getelementptr inbounds [18 x i8], ptr %10, i64 0, i64 2
  store i8 1, ptr %71, align 2
  %72 = load ptr, ptr %5, align 8
  %73 = load ptr, ptr %3, align 8
  %74 = getelementptr inbounds nuw %struct.RelationData, ptr %73, i32 0, i32 14
  %75 = load ptr, ptr %74, align 8
  %76 = getelementptr inbounds [18 x i64], ptr %11, i64 0, i64 0
  %77 = getelementptr inbounds [18 x i8], ptr %9, i64 0, i64 0
  %78 = getelementptr inbounds [18 x i8], ptr %10, i64 0, i64 0
  %79 = call ptr @heap_modify_tuple(ptr noundef %72, ptr noundef %75, ptr noundef %76, ptr noundef %77, ptr noundef %78)
  store ptr %79, ptr %5, align 8
  %80 = load ptr, ptr %3, align 8
  %81 = load ptr, ptr %5, align 8
  %82 = getelementptr inbounds nuw %struct.HeapTupleData, ptr %81, i32 0, i32 1
  %83 = load ptr, ptr %5, align 8
  call void @CatalogTupleUpdate(ptr noundef %80, ptr noundef %82, ptr noundef %83)
  %84 = load i64, ptr %6, align 8
  %85 = load i64, ptr %2, align 8
  %86 = icmp ne i64 %84, %85
  br i1 %86, label %87, label %118

87:                                               ; preds = %65
  br label %88

88:                                               ; preds = %87
  br i1 false, label %89, label %91

89:                                               ; preds = %88
  %90 = call zeroext i1 @errstart_cold(i32 noundef 19, ptr noundef null) #13
  br i1 %90, label %93, label %115

91:                                               ; preds = %88
  %92 = call zeroext i1 @errstart(i32 noundef 19, ptr noundef null)
  br i1 %92, label %93, label %115

93:                                               ; preds = %91, %89
  %94 = load ptr, ptr @MySubscription, align 8
  %95 = getelementptr inbounds nuw %struct.Subscription, ptr %94, i32 0, i32 3
  %96 = load ptr, ptr %95, align 8
  %97 = call i32 (ptr, ...) @errmsg(ptr noundef @.str.42, ptr noundef %96)
  br label %98

98:                                               ; preds = %93
  br label %99

99:                                               ; preds = %98
  br label %100

100:                                              ; preds = %99
  store i32 1, ptr %12, align 4
  %101 = load i64, ptr %2, align 8
  %102 = lshr i64 %101, 32
  %103 = trunc i64 %102 to i32
  %104 = load i64, ptr %2, align 8
  %105 = trunc i64 %104 to i32
  br label %106

106:                                              ; preds = %100
  br label %107

107:                                              ; preds = %106
  br label %108

108:                                              ; preds = %107
  store i32 1, ptr %13, align 4
  %109 = load i64, ptr %6, align 8
  %110 = lshr i64 %109, 32
  %111 = trunc i64 %110 to i32
  %112 = load i64, ptr %6, align 8
  %113 = trunc i64 %112 to i32
  %114 = call i32 (ptr, ...) @errdetail(ptr noundef @.str.43, i32 noundef %103, i32 noundef %105, i32 noundef %111, i32 noundef %113)
  call void @errfinish(ptr noundef @.str.3, i32 noundef 4984, ptr noundef @__func__.clear_subscription_skip_lsn)
  br label %115

115:                                              ; preds = %108, %91, %89
  br label %116

116:                                              ; preds = %115
  br label %117

117:                                              ; preds = %116
  br label %118

118:                                              ; preds = %117, %65
  call void @llvm.lifetime.end.p0(i64 144, ptr %11) #12
  call void @llvm.lifetime.end.p0(i64 18, ptr %10) #12
  call void @llvm.lifetime.end.p0(i64 18, ptr %9) #12
  br label %119

119:                                              ; preds = %118, %57
  %120 = load ptr, ptr %5, align 8
  call void @heap_freetuple(ptr noundef %120)
  %121 = load ptr, ptr %3, align 8
  call void @table_close(ptr noundef %121, i32 noundef 0)
  %122 = load i8, ptr %7, align 1, !range !4, !noundef !5
  %123 = trunc i8 %122 to i1
  br i1 %123, label %124, label %125

124:                                              ; preds = %119
  call void @CommitTransactionCommand()
  br label %125

125:                                              ; preds = %124, %119
  store i32 0, ptr %8, align 4
  br label %126

126:                                              ; preds = %125, %27
  call void @llvm.lifetime.end.p0(i64 1, ptr %7) #12
  call void @llvm.lifetime.end.p0(i64 8, ptr %6) #12
  call void @llvm.lifetime.end.p0(i64 8, ptr %5) #12
  call void @llvm.lifetime.end.p0(i64 8, ptr %4) #12
  call void @llvm.lifetime.end.p0(i64 8, ptr %3) #12
  %127 = load i32, ptr %8, align 4
  switch i32 %127, label %129 [
    i32 0, label %128
    i32 1, label %128
  ]

128:                                              ; preds = %126, %126
  ret void

129:                                              ; preds = %126
  unreachable
}