; Function Attrs: nounwind uwtable
define internal fastcc void @clear_subscription_skip_lsn(i64 noundef %0) unnamed_addr #0 {
  %2 = alloca [18 x i8], align 16
  %3 = alloca [18 x i8], align 16
  %4 = alloca [18 x i64], align 16
  %5 = load ptr, ptr @MySubscription, align 8
  %6 = getelementptr inbounds nuw i8, ptr %5, i64 8
  %7 = load i64, ptr %6, align 8
  %8 = icmp eq i64 %7, 0
  br i1 %8, label %64, label %9, !prof !6

9:                                                ; preds = %1
  %10 = load ptr, ptr @MyLogicalRepWorker, align 8
  %11 = getelementptr inbounds nuw i8, ptr %10, i64 16
  %12 = load i8, ptr %11, align 8, !range !4, !noundef !5
  %13 = trunc nuw i8 %12 to i1
  br i1 %13, label %am_parallel_apply_worker.exit, label %am_parallel_apply_worker.exit.thread

am_parallel_apply_worker.exit:                    ; preds = %9
  %14 = load i32, ptr %10, align 8
  %15 = icmp eq i32 %14, 3
  br i1 %15, label %64, label %am_parallel_apply_worker.exit.thread

am_parallel_apply_worker.exit.thread:             ; preds = %9, %am_parallel_apply_worker.exit
  %16 = tail call zeroext i1 @IsTransactionState() #17
  br i1 %16, label %18, label %17

17:                                               ; preds = %am_parallel_apply_worker.exit.thread
  tail call void @StartTransactionCommand() #17
  br label %18

18:                                               ; preds = %17, %am_parallel_apply_worker.exit.thread
  %19 = load ptr, ptr @MySubscription, align 8
  %20 = load i32, ptr %19, align 8
  tail call void @LockSharedObject(i32 noundef 6100, i32 noundef %20, i16 noundef zeroext 0, i32 noundef 1) #17
  %21 = tail call ptr @table_open(i32 noundef 6100, i32 noundef 3) #17
  %22 = load ptr, ptr @MySubscription, align 8
  %23 = load i32, ptr %22, align 8
  %24 = zext i32 %23 to i64
  %25 = tail call ptr @SearchSysCacheCopy(i32 noundef 67, i64 noundef %24, i64 noundef 0, i64 noundef 0, i64 noundef 0) #17
  %.not = icmp eq ptr %25, null
  br i1 %.not, label %26, label %32

26:                                               ; preds = %18
  %27 = tail call zeroext i1 @errstart_cold(i32 noundef 21, ptr noundef null) #18
  tail call void @llvm.assume(i1 %27)
  %28 = load ptr, ptr @MySubscription, align 8
  %29 = getelementptr inbounds nuw i8, ptr %28, i64 16
  %30 = load ptr, ptr %29, align 8
  %31 = tail call i32 (ptr, ...) @errmsg_internal(ptr noundef nonnull @.str.41, ptr noundef %30) #17
  tail call void @errfinish(ptr noundef nonnull @.str.3, i32 noundef 4946, ptr noundef nonnull @__func__.clear_subscription_skip_lsn) #17
  unreachable

32:                                               ; preds = %18
  %33 = getelementptr i8, ptr %25, i64 16
  %.val = load ptr, ptr %33, align 8
  %34 = getelementptr inbounds nuw i8, ptr %.val, i64 22
  %35 = load i8, ptr %34, align 2
  %36 = zext i8 %35 to i64
  %37 = getelementptr inbounds nuw i8, ptr %.val, i64 %36
  %38 = getelementptr inbounds nuw i8, ptr %37, i64 8
  %39 = load i64, ptr %38, align 8
  %40 = icmp eq i64 %39, %7
  br i1 %40, label %41, label %62

41:                                               ; preds = %32
  call void @llvm.lifetime.start.p0(i64 18, ptr nonnull %2) #17
  call void @llvm.lifetime.start.p0(i64 18, ptr nonnull %3) #17
  call void @llvm.lifetime.start.p0(i64 144, ptr nonnull %4) #17
  call void @llvm.memset.p0.i64(ptr noundef nonnull align 16 dereferenceable(144) %4, i8 0, i64 144, i1 false)
  call void @llvm.memset.p0.i64(ptr noundef nonnull align 16 dereferenceable(18) %2, i8 0, i64 18, i1 false)
  call void @llvm.memset.p0.i64(ptr noundef nonnull align 16 dereferenceable(18) %3, i8 0, i64 18, i1 false)
  %42 = getelementptr inbounds nuw i8, ptr %3, i64 2
  store i8 1, ptr %42, align 2
  %43 = getelementptr inbounds nuw i8, ptr %21, i64 64
  %44 = load ptr, ptr %43, align 8
  %45 = call ptr @heap_modify_tuple(ptr noundef nonnull %25, ptr noundef %44, ptr noundef nonnull %4, ptr noundef nonnull %2, ptr noundef nonnull %3) #17
  %46 = getelementptr inbounds nuw i8, ptr %45, i64 4
  call void @CatalogTupleUpdate(ptr noundef %21, ptr noundef nonnull %46, ptr noundef %45) #17
  %.not22 = icmp eq i64 %7, %0
  br i1 %.not22, label %61, label %47

47:                                               ; preds = %41
  %48 = call zeroext i1 @errstart(i32 noundef 19, ptr noundef null) #17
  br i1 %48, label %49, label %61

49:                                               ; preds = %47
  %50 = load ptr, ptr @MySubscription, align 8
  %51 = getelementptr inbounds nuw i8, ptr %50, i64 16
  %52 = load ptr, ptr %51, align 8
  %53 = call i32 (ptr, ...) @errmsg(ptr noundef nonnull @.str.42, ptr noundef %52) #17
  %54 = lshr i64 %0, 32
  %55 = trunc nuw i64 %54 to i32
  %56 = trunc i64 %0 to i32
  %57 = lshr i64 %7, 32
  %58 = trunc nuw i64 %57 to i32
  %59 = trunc i64 %7 to i32
  %60 = call i32 (ptr, ...) @errdetail(ptr noundef nonnull @.str.43, i32 noundef %55, i32 noundef %56, i32 noundef %58, i32 noundef %59) #17
  call void @errfinish(ptr noundef nonnull @.str.3, i32 noundef 4984, ptr noundef nonnull @__func__.clear_subscription_skip_lsn) #17
  br label %61

61:                                               ; preds = %47, %49, %41
  call void @llvm.lifetime.end.p0(i64 144, ptr nonnull %4) #17
  call void @llvm.lifetime.end.p0(i64 18, ptr nonnull %3) #17
  call void @llvm.lifetime.end.p0(i64 18, ptr nonnull %2) #17
  br label %62

62:                                               ; preds = %61, %32
  %.0 = phi ptr [ %45, %61 ], [ %25, %32 ]
  call void @heap_freetuple(ptr noundef nonnull %.0) #17
  call void @table_close(ptr noundef %21, i32 noundef 0) #17
  br i1 %16, label %64, label %63

63:                                               ; preds = %62
  call void @CommitTransactionCommand() #17
  br label %64

64:                                               ; preds = %62, %63, %1, %am_parallel_apply_worker.exit
  ret void
}